; Function Attrs: mustprogress uwtable
define hidden noundef nonnull align 8 dereferenceable(8) ptr @_ZN3smt15display_compactERSoN3sat7literalEPKP4expr(ptr noundef nonnull returned align 8 dereferenceable(8) %0, i32 %1, ptr noundef readonly captures(none) %2) local_unnamed_addr #4 {
  %4 = load i32, ptr @_ZN3smtL12true_literalE, align 4, !tbaa !3
  %5 = icmp eq i32 %1, %4
  br i1 %5, label %6, label %8

6:                                                ; preds = %3
  %7 = tail call noundef nonnull align 8 dereferenceable(8) ptr @_ZSt16__ostream_insertIcSt11char_traitsIcEERSt13basic_ostreamIT_T0_ES6_PKS3_l(ptr noundef nonnull align 8 dereferenceable(8) %0, ptr noundef nonnull @.str, i64 noundef 4)
  br label %31

8:                                                ; preds = %3
  %9 = load i32, ptr @_ZN3smtL13false_literalE, align 4, !tbaa !3
  %10 = icmp eq i32 %1, %9
  br i1 %10, label %11, label %13

11:                                               ; preds = %8
  %12 = tail call noundef nonnull align 8 dereferenceable(8) ptr @_ZSt16__ostream_insertIcSt11char_traitsIcEERSt13basic_ostreamIT_T0_ES6_PKS3_l(ptr noundef nonnull align 8 dereferenceable(8) %0, ptr noundef nonnull @.str.3, i64 noundef 5)
  br label %31

13:                                               ; preds = %8
  %14 = and i32 %1, 1
  %.not = icmp eq i32 %14, 0
  %15 = lshr i32 %1, 1
  %16 = zext nneg i32 %15 to i64
  %17 = getelementptr inbounds nuw ptr, ptr %2, i64 %16
  br i1 %.not, label %25, label %18

18:                                               ; preds = %13
  %19 = tail call noundef nonnull align 8 dereferenceable(8) ptr @_ZSt16__ostream_insertIcSt11char_traitsIcEERSt13basic_ostreamIT_T0_ES6_PKS3_l(ptr noundef nonnull align 8 dereferenceable(8) %0, ptr noundef nonnull @.str.7, i64 noundef 6)
  %20 = load ptr, ptr %17, align 8, !tbaa !8
  %21 = load i32, ptr %20, align 4, !tbaa !11
  %22 = zext i32 %21 to i64
  %23 = tail call noundef nonnull align 8 dereferenceable(8) ptr @_ZNSo9_M_insertImEERSoT_(ptr noundef nonnull align 8 dereferenceable(8) %0, i64 noundef %22)
  %24 = tail call noundef nonnull align 8 dereferenceable(8) ptr @_ZSt16__ostream_insertIcSt11char_traitsIcEERSt13basic_ostreamIT_T0_ES6_PKS3_l(ptr noundef nonnull align 8 dereferenceable(8) %23, ptr noundef nonnull @.str.6, i64 noundef 1)
  br label %31

25:                                               ; preds = %13
  %26 = tail call noundef nonnull align 8 dereferenceable(8) ptr @_ZSt16__ostream_insertIcSt11char_traitsIcEERSt13basic_ostreamIT_T0_ES6_PKS3_l(ptr noundef nonnull align 8 dereferenceable(8) %0, ptr noundef nonnull @.str.8, i64 noundef 1)
  %27 = load ptr, ptr %17, align 8, !tbaa !8
  %28 = load i32, ptr %27, align 4, !tbaa !11
  %29 = zext i32 %28 to i64
  %30 = tail call noundef nonnull align 8 dereferenceable(8) ptr @_ZNSo9_M_insertImEERSoT_(ptr noundef nonnull align 8 dereferenceable(8) %0, i64 noundef %29)
  br label %31

31:                                               ; preds = %11, %25, %18, %6
  ret ptr %0
}